; Function Attrs: mustprogress uwtable
define void @cvSetZero(ptr noundef %0) local_unnamed_addr #5 personality ptr @__gxx_personality_v0 {
  %2 = alloca %"class.cv::Mat", align 8
  %3 = alloca %"class.cv::Scalar_", align 8
  %.not = icmp eq ptr %0, null
  br i1 %.not, label %18, label %4

4:                                                ; preds = %1
  %5 = load i32, ptr %0, align 8
  %6 = and i32 %5, -65536
  %7 = icmp eq i32 %6, 1111752704
  br i1 %7, label %8, label %18

8:                                                ; preds = %4
  %9 = getelementptr inbounds i8, ptr %0, i64 24
  %10 = load ptr, ptr %9, align 8
  tail call void @cvClearSet(ptr noundef %10)
  %11 = getelementptr inbounds i8, ptr %0, i64 32
  %12 = load ptr, ptr %11, align 8
  %.not10 = icmp eq ptr %12, null
  br i1 %.not10, label %21, label %13

13:                                               ; preds = %8
  %14 = getelementptr inbounds i8, ptr %0, i64 40
  %15 = load i32, ptr %14, align 8
  %16 = sext i32 %15 to i64
  %17 = shl nsw i64 %16, 3
  tail call void @llvm.memset.p0.i64(ptr nonnull align 8 %12, i8 0, i64 %17, i1 false)
  br label %21

18:                                               ; preds = %1, %4
  call void @_ZN2cv10cvarrToMatEPKvbbiPNS_10AutoBufferIdLm136EEE(ptr dead_on_unwind nonnull writable sret(%"class.cv::Mat") align 8 %2, ptr noundef %0, i1 noundef zeroext false, i1 noundef zeroext true, i32 noundef 0, ptr noundef null)
  call void @llvm.memset.p0.i64(ptr noundef nonnull align 8 dereferenceable(32) %3, i8 0, i64 32, i1 false)
  %19 = invoke noundef nonnull align 8 dereferenceable(96) ptr @_ZN2cv3MataSERKNS_7Scalar_IdEE(ptr noundef nonnull align 8 dereferenceable(96) %2, ptr noundef nonnull align 8 dereferenceable(32) %3)
          to label %20 unwind label %22

20:                                               ; preds = %18
  call void @_ZN2cv3MatD1Ev(ptr noundef nonnull align 8 dereferenceable(96) %2) #17
  br label %21

21:                                               ; preds = %8, %13, %20
  ret void

22:                                               ; preds = %18
  %23 = landingpad { ptr, i32 }
          cleanup
  call void @_ZN2cv3MatD1Ev(ptr noundef nonnull align 8 dereferenceable(96) %2) #17
  resume { ptr, i32 } %23
}